target datalayout = "e-m:e-p270:32:32-p271:32:32-p272:64:64-i64:64-i128:128-f80:128-n8:16:32:64-S128"
target triple = "x86_64-pc-linux-gnu"

%struct.rb_data_type_struct = type { ptr, %struct.anon.2, ptr, ptr, i64 }
%struct.anon.2 = type { ptr, ptr, ptr, ptr, [1 x ptr] }
%struct.zstream = type { i64, i64, i64, i64, %struct.z_stream_s, ptr }
%struct.z_stream_s = type { ptr, i32, i64, ptr, i32, i64, ptr, ptr, ptr, ptr, ptr, i32, i64, i64 }
%struct.gzfile = type { %struct.zstream, i64, i32, i32, i64, i64, i64, i64, i32, i32, i64, ptr, ptr, ptr, ptr, i64, i64 }
%struct.RString = type { %struct.RBasic, i64, %union.anon }
%struct.RBasic = type { i64, i64 }
%union.anon = type { %struct.anon }
%struct.anon = type { ptr, %union.anon.0 }
%union.anon.0 = type { i64 }

@gzfile_data_type = internal constant %struct.rb_data_type_struct { ptr @.str.163, %struct.anon.2 { ptr @gzfile_mark, ptr @gzfile_free, ptr @gzfile_memsize, ptr null, [1 x ptr] zeroinitializer }, ptr null, ptr null, i64 1 }, align 8

; Function Attrs: inlinehint nounwind sspstrong willreturn memory(read) uwtable
define internal i64 @RSTRING_LEN(i64 noundef %0) #6 {
  %2 = alloca i64, align 8
  store i64 %0, ptr %2, align 8, !tbaa !6
  %3 = load i64, ptr %2, align 8, !tbaa !6
  %4 = inttoptr i64 %3 to ptr
  %5 = getelementptr inbounds nuw %struct.RString, ptr %4, i32 0, i32 1
  %6 = load i64, ptr %5, align 8, !tbaa !88
  ret i64 %6
}

; Function Attrs: inlinehint nounwind sspstrong willreturn memory(none) uwtable
define internal zeroext i1 @RB_NIL_P(i64 noundef %0) #5 {
  %2 = alloca i64, align 8
  store i64 %0, ptr %2, align 8, !tbaa !6
  %3 = load i64, ptr %2, align 8, !tbaa !6
  %4 = icmp eq i64 %3, 4
  ret i1 %4
}

; Function Attrs: nounwind sspstrong uwtable
define internal i64 @gzfile_reader_get_unused(ptr noundef %0) #0 {
  %2 = alloca i64, align 8
  %3 = alloca ptr, align 8
  %4 = alloca i64, align 8
  %5 = alloca i32, align 4
  store ptr %0, ptr %3, align 8, !tbaa !57
  call void @llvm.lifetime.start.p0(i64 8, ptr %4) #23
  %6 = load ptr, ptr %3, align 8, !tbaa !57
  %7 = getelementptr inbounds nuw %struct.gzfile, ptr %6, i32 0, i32 0
  %8 = getelementptr inbounds nuw %struct.zstream, ptr %7, i32 0, i32 0
  %9 = load i64, ptr %8, align 8, !tbaa !59
  %10 = and i64 %9, 1
  %11 = icmp ne i64 %10, 0
  br i1 %11, label %13, label %12

12:                                               ; preds = %1
  store i64 4, ptr %2, align 8
  store i32 1, ptr %5, align 4
  br label %60

13:                                               ; preds = %1
  %14 = load ptr, ptr %3, align 8, !tbaa !57
  %15 = getelementptr inbounds nuw %struct.gzfile, ptr %14, i32 0, i32 0
  %16 = getelementptr inbounds nuw %struct.zstream, ptr %15, i32 0, i32 0
  %17 = load i64, ptr %16, align 8, !tbaa !59
  %18 = and i64 %17, 4
  %19 = icmp ne i64 %18, 0
  br i1 %19, label %20, label %36

20:                                               ; preds = %13
  %21 = load ptr, ptr %3, align 8, !tbaa !57
  %22 = getelementptr inbounds nuw %struct.gzfile, ptr %21, i32 0, i32 0
  %23 = getelementptr inbounds nuw %struct.zstream, ptr %22, i32 0, i32 1
  %24 = load i64, ptr %23, align 8, !tbaa !60
  %25 = call zeroext i1 @RB_NIL_P(i64 noundef %24) #24
  br i1 %25, label %26, label %27

26:                                               ; preds = %20
  br label %33

27:                                               ; preds = %20
  %28 = load ptr, ptr %3, align 8, !tbaa !57
  %29 = getelementptr inbounds nuw %struct.gzfile, ptr %28, i32 0, i32 0
  %30 = getelementptr inbounds nuw %struct.zstream, ptr %29, i32 0, i32 1
  %31 = load i64, ptr %30, align 8, !tbaa !60
  %32 = call i64 @RSTRING_LEN(i64 noundef %31) #25
  br label %33

33:                                               ; preds = %27, %26
  %34 = phi i64 [ 0, %26 ], [ %32, %27 ]
  %35 = icmp eq i64 %34, 0
  br i1 %35, label %37, label %36

36:                                               ; preds = %33, %13
  store i64 4, ptr %2, align 8
  store i32 1, ptr %5, align 4
  br label %60

37:                                               ; preds = %33
  %38 = load ptr, ptr %3, align 8, !tbaa !57
  %39 = getelementptr inbounds nuw %struct.gzfile, ptr %38, i32 0, i32 0
  %40 = getelementptr inbounds nuw %struct.zstream, ptr %39, i32 0, i32 0
  %41 = load i64, ptr %40, align 8, !tbaa !59
  %42 = and i64 %41, 512
  %43 = icmp ne i64 %42, 0
  br i1 %43, label %46, label %44

44:                                               ; preds = %37
  %45 = load ptr, ptr %3, align 8, !tbaa !57
  call void @gzfile_check_footer(ptr noundef %45, i64 noundef 4)
  br label %46

46:                                               ; preds = %44, %37
  %47 = load ptr, ptr %3, align 8, !tbaa !57
  %48 = getelementptr inbounds nuw %struct.gzfile, ptr %47, i32 0, i32 0
  %49 = getelementptr inbounds nuw %struct.zstream, ptr %48, i32 0, i32 2
  %50 = load i64, ptr %49, align 8, !tbaa !76
  %51 = call zeroext i1 @RB_NIL_P(i64 noundef %50) #24
  br i1 %51, label %52, label %53

52:                                               ; preds = %46
  store i64 4, ptr %2, align 8
  store i32 1, ptr %5, align 4
  br label %60

53:                                               ; preds = %46
  %54 = load ptr, ptr %3, align 8, !tbaa !57
  %55 = getelementptr inbounds nuw %struct.gzfile, ptr %54, i32 0, i32 0
  %56 = getelementptr inbounds nuw %struct.zstream, ptr %55, i32 0, i32 2
  %57 = load i64, ptr %56, align 8, !tbaa !76
  %58 = call i64 @rb_str_resurrect(i64 noundef %57)
  store i64 %58, ptr %4, align 8, !tbaa !6
  %59 = load i64, ptr %4, align 8, !tbaa !6
  store i64 %59, ptr %2, align 8
  store i32 1, ptr %5, align 4
  br label %60

60:                                               ; preds = %53, %52, %36, %12
  call void @llvm.lifetime.end.p0(i64 8, ptr %4) #23
  %61 = load i64, ptr %2, align 8
  ret i64 %61
}

; Function Attrs: nounwind sspstrong uwtable
define internal i64 @rb_gzreader_unused(i64 noundef %0) #0 {
  %2 = alloca i64, align 8
  %3 = alloca ptr, align 8
  store i64 %0, ptr %2, align 8, !tbaa !6
  call void @llvm.lifetime.start.p0(i64 8, ptr %3) #23
  %4 = load i64, ptr %2, align 8, !tbaa !6
  %5 = call ptr @rb_check_typeddata(i64 noundef %4, ptr noundef @gzfile_data_type)
  store ptr %5, ptr %3, align 8, !tbaa !57
  %6 = load ptr, ptr %3, align 8, !tbaa !57
  %7 = call i64 @gzfile_reader_get_unused(ptr noundef %6)
  call void @llvm.lifetime.end.p0(i64 8, ptr %3) #23
  ret i64 %7
}