; Function Attrs: nounwind sspstrong uwtable
define internal i64 @rb_gzreader_unused(i64 noundef %0) #0 {
  %2 = tail call ptr @rb_check_typeddata(i64 noundef %0, ptr noundef nonnull @gzfile_data_type) #18
  %3 = load i64, ptr %2, align 8, !tbaa !113
  %4 = and i64 %3, 5
  %or.cond.not.i = icmp eq i64 %4, 5
  br i1 %or.cond.not.i, label %5, label %gzfile_reader_get_unused.exit

5:                                                ; preds = %1
  %6 = getelementptr inbounds nuw i8, ptr %2, i64 8
  %7 = load i64, ptr %6, align 8, !tbaa !132
  %8 = icmp eq i64 %7, 4
  br i1 %8, label %.critedge.i, label %9

9:                                                ; preds = %5
  %10 = inttoptr i64 %7 to ptr
  %11 = getelementptr inbounds nuw i8, ptr %10, i64 16
  %12 = load i64, ptr %11, align 8, !tbaa !21
  %13 = icmp eq i64 %12, 0
  br i1 %13, label %.critedge.i, label %gzfile_reader_get_unused.exit

.critedge.i:                                      ; preds = %9, %5
  %14 = and i64 %3, 512
  %.not10.i = icmp eq i64 %14, 0
  br i1 %.not10.i, label %15, label %16

15:                                               ; preds = %.critedge.i
  tail call fastcc void @gzfile_check_footer(ptr noundef nonnull %2, i64 noundef 4)
  br label %16

16:                                               ; preds = %15, %.critedge.i
  %17 = getelementptr inbounds nuw i8, ptr %2, i64 16
  %18 = load i64, ptr %17, align 8, !tbaa !154
  %19 = icmp eq i64 %18, 4
  br i1 %19, label %gzfile_reader_get_unused.exit, label %20

20:                                               ; preds = %16
  %21 = tail call i64 @rb_str_resurrect(i64 noundef %18) #18
  br label %gzfile_reader_get_unused.exit

gzfile_reader_get_unused.exit:                    ; preds = %1, %9, %16, %20
  %.0.i = phi i64 [ %21, %20 ], [ 4, %1 ], [ 4, %9 ], [ 4, %16 ]
  ret i64 %.0.i
}